Certificate:
    Data:
        Version: 3 (0x2)
        Serial Number: 9 (0x9)
        Signature Algorithm: sha256WithRSAEncryption
        Issuer: C=RU, ST=Russia, L=Saint-Petersburg, O=Rost Ltd, OU=Security, CN=Rost Root CA/emailAddress=postmaster@rost-sp.spb.ru
        Validity
            Not Before: Jun 26 08:46:33 2017 GMT
            Not After : Jun 24 08:46:33 2027 GMT
        Subject: C=RU, ST=Russia, O=Rost Ltd, OU=Security, CN=localhost/emailAddress=postmaster@rost-sp.spb.ru
        Subject Public Key Info:
            Public Key Algorithm: rsaEncryption
            RSA Public Key: (4096 bit)
                Modulus (4096 bit):
                    00:d3:0a:89:21:54:04:3e:34:c3:98:35:64:72:52:
                    ab:b2:fb:64:6a:9b:9e:d3:93:1b:46:ef:4a:34:15:
                    4f:5d:b0:bd:44:d5:2d:46:a6:b2:89:b8:b8:d4:56:
                    34:21:d0:c1:16:00:a6:5d:f9:08:8d:cd:04:f9:25:
                    8c:17:51:14:ab:1e:46:39:7e:07:0d:96:96:94:ec:
                    7d:31:44:1d:c2:a2:d7:de:81:b5:f5:7e:e9:05:46:
                    5c:36:cf:ec:7c:6f:cc:4d:e7:35:56:3f:7c:eb:a6:
                    5e:88:3b:f5:ec:76:aa:e7:44:5b:68:2a:16:1a:a4:
                    3a:5e:01:82:8d:dc:69:a5:0f:6b:19:73:43:87:9c:
                    43:d9:e3:3c:57:35:6e:93:a5:3c:16:89:7a:09:f7:
                    6d:f8:5e:51:8d:c0:53:f3:b7:f5:95:c4:fd:eb:33:
                    2b:84:7e:54:e7:63:79:07:69:e7:f2:be:9d:00:d4:
                    19:7a:d1:25:2d:11:f5:01:bd:ca:25:1b:49:e9:a7:
                    4b:77:b6:27:7b:e9:b6:27:1d:fa:dd:25:c7:bd:79:
                    94:a6:cb:d0:ba:a8:6d:db:2a:c0:56:dd:d8:a9:a0:
                    65:c7:b0:a9:de:8b:34:90:12:ef:44:d1:13:91:6a:
                    d3:f3:a6:43:9a:dd:f9:e5:f6:84:38:83:44:47:a5:
                    7d:f3:39:3d:ee:96:60:be:74:5f:c7:d8:98:9b:29:
                    0b:a0:9c:71:00:0a:46:3a:4a:3a:17:f2:81:11:aa:
                    80:7b:f7:ba:82:92:82:96:a1:69:4a:c6:96:ba:22:
                    a9:a8:98:10:b5:0a:ee:b9:8b:44:66:7a:5f:fc:fb:
                    3b:ea:54:98:12:84:e8:a9:ec:42:55:bf:f8:2d:bf:
                    97:7f:36:eb:43:26:10:7a:dc:2c:48:c9:55:ee:5e:
                    f0:09:dd:d6:fb:36:76:22:65:4c:5f:8a:00:30:07:
                    f6:13:85:0b:0c:ac:34:e2:0e:fa:1a:93:48:ee:de:
                    b6:84:d2:d5:d4:6b:c6:34:fa:c6:58:89:9a:75:e7:
                    67:09:98:d1:54:4d:21:e5:b9:76:46:24:06:f2:bc:
                    c2:47:67:89:22:ad:e0:94:15:3f:bf:bb:8f:63:d0:
                    ff:53:e7:59:52:b6:90:9a:1d:be:c9:76:cd:ae:e0:
                    bc:a1:14:4b:b6:96:cc:e3:a9:a9:57:b5:ef:78:ec:
                    4b:18:69:fa:53:e9:c2:82:a2:8c:9f:5d:6f:87:9d:
                    e9:4a:b2:0e:5b:90:ba:50:f0:51:a0:21:94:2a:3e:
                    01:6e:66:0e:1a:34:c9:36:2b:6a:b7:24:8b:fb:75:
                    00:4d:a2:1b:77:75:87:da:85:25:f9:3a:22:a9:9b:
                    79:8f:bf
                Exponent: 65537 (0x10001)
        X509v3 extensions:
            X509v3 Subject Alternative Name: 
                DNS:localhost
    Signature Algorithm: sha256WithRSAEncryption
        60:9d:b8:ce:f8:a1:02:50:cf:ba:ec:1b:37:f4:c6:63:0b:11:
        94:99:bb:ae:e7:c0:64:a5:81:bb:de:80:18:8c:17:5f:08:a0:
        70:d1:37:7c:3e:00:a9:15:93:f1:7f:ba:e3:87:4f:d3:4e:9d:
        b1:93:98:dc:fd:b3:ba:37:8b:09:32:cb:ed:26:56:76:4f:2b:
        33:94:65:4c:f6:08:61:e4:96:71:36:10:db:03:97:64:61:84:
        84:f9:84:14:47:00:26:53:90:2e:26:c1:aa:56:21:25:96:e1:
        2c:9a:6a:16:55:6a:22:ad:d3:5c:95:6d:3b:e9:31:8c:5c:60:
        e4:04:68:ea:2e:03:ff:c7:f7:68:15:ed:a4:1d:83:c4:33:f7:
        54:ee:61:85:3a:57:a5:b6:ac:d9:21:0f:47:2c:c9:2d:62:7d:
        9a:ac:45:42:69:7c:03:4d:4e:28:c7:f0:a1:9b:a0:50:03:1e:
        37:ea:e0:f9:00:d7:88:2c:9e:2c:64:58:39:70:7c:a2:e6:d4:
        52:b3:e3:a3:e6:93:00:7b:cf:f1:ea:e4:22:bb:a1:17:3f:2e:
        b5:5a:33:5a:df:8a:da:75:ec:31:fb:90:22:32:81:02:88:90:
        e4:0a:99:14:87:e2:8a:e3:fe:14:68:da:f3:fb:46:91:05:e1:
        e1:88:42:65:31:a2:b1:38:6d:41:b2:51:ba:d9:59:16:eb:79:
        2a:d0:05:b9:b1:1e:08:83:36:c9:9e:7d:27:54:51:20:52:e0:
        f9:c7:5b:c0:23:0d:4b:99:ce:97:74:a8:a0:57:93:c1:fc:e8:
        e6:eb:1e:c8:c4:92:1e:a9:f0:96:04:07:2a:89:b8:7c:13:89:
        11:a7:2f:5f:80:f5:07:32:48:1b:5a:b4:ce:55:6a:72:64:b6:
        d1:77:ce:29:a2:5d:34:9e:40:55:ec:7a:23:14:d5:03:28:8a:
        67:5b:41:4a:96:5a:ec:24:76:e0:3d:4b:92:3e:57:0e:be:e4:
        56:65:6c:ae:c8:9f:73:b9:fc:a9:65:bb:9f:49:20:ef:10:35:
        98:ae:e0:f9:78:25:65:4c:28:39:4e:30:c9:fb:fa:18:f3:92:
        44:27:4f:22:77:67:00:62:75:47:b4:d5:9c:65:ed:9f:a6:ff:
        72:15:1b:6e:45:85:9c:16:fe:13:2a:12:6b:c7:4e:4d:ca:78:
        92:c1:de:d8:72:81:ea:04:7c:7e:04:3a:61:a9:a0:52:77:8e:
        b2:57:c9:7f:e4:96:b3:4e:5d:ce:82:d7:61:eb:35:62:df:dc:
        96:ae:97:a1:17:6e:8a:8c:23:1d:a4:09:cc:73:0e:99:74:1e:
        81:b9:a0:8c:97:33:30:1f
-----BEGIN CERTIFICATE-----
MIIFtzCCA5+gAwIBAgIBCTANBgkqhkiG9w0BAQsFADCBoDELMAkGA1UEBhMCUlUx
DzANBgNVBAgMBlJ1c3NpYTEZMBcGA1UEBwwQU2FpbnQtUGV0ZXJzYnVyZzERMA8G
A1UECgwIUm9zdCBMdGQxETAPBgNVBAsMCFNlY3VyaXR5MRUwEwYDVQQDDAxSb3N0
IFJvb3QgQ0ExKDAmBgkqhkiG9w0BCQEWGXBvc3RtYXN0ZXJAcm9zdC1zcC5zcGIu
cnUwHhcNMTcwNjI2MDg0NjMzWhcNMjcwNjI0MDg0NjMzWjCBgjELMAkGA1UEBhMC
UlUxDzANBgNVBAgMBlJ1c3NpYTERMA8GA1UECgwIUm9zdCBMdGQxETAPBgNVBAsM
CFNlY3VyaXR5MRIwEAYDVQQDDAlsb2NhbGhvc3QxKDAmBgkqhkiG9w0BCQEWGXBv
c3RtYXN0ZXJAcm9zdC1zcC5zcGIucnUwggIiMA0GCSqGSIb3DQEBAQUAA4ICDwAw
ggIKAoICAQDTCokhVAQ+NMOYNWRyUquy+2Rqm57TkxtG70o0FU9dsL1E1S1GprKJ
uLjUVjQh0MEWAKZd+QiNzQT5JYwXURSrHkY5fgcNlpaU7H0xRB3CotfegbX1fukF
Rlw2z+x8b8xN5zVWP3zrpl6IO/XsdqrnRFtoKhYapDpeAYKN3GmlD2sZc0OHnEPZ
4zxXNW6TpTwWiXoJ9234XlGNwFPzt/WVxP3rMyuEflTnY3kHaefyvp0A1Bl60SUt
EfUBvcolG0npp0t3tid76bYnHfrdJce9eZSmy9C6qG3bKsBW3dipoGXHsKneizSQ
Eu9E0RORatPzpkOa3fnl9oQ4g0RHpX3zOT3ulmC+dF/H2JibKQugnHEACkY6SjoX
8oERqoB797qCkoKWoWlKxpa6IqmomBC1Cu65i0Rmel/8+zvqVJgShOip7EJVv/gt
v5d/NutDJhB63CxIyVXuXvAJ3db7NnYiZUxfigAwB/YThQsMrDTiDvoak0ju3raE
0tXUa8Y0+sZYiZp152cJmNFUTSHluXZGJAbyvMJHZ4kireCUFT+/u49j0P9T51lS
tpCaHb7Jds2u4LyhFEu2lszjqalXte947EsYafpT6cKCooyfXW+HnelKsg5bkLpQ
8FGgIZQqPgFuZg4aNMk2K2q3JIv7dQBNoht3dYfahSX5OiKpm3mPvwIDAQABoxgw
FjAUBgNVHREEDTALgglsb2NhbGhvc3QwDQYJKoZIhvcNAQELBQADggIBAGCduM74
oQJQz7rsGzf0xmMLEZSZu67nwGSlgbvegBiMF18IoHDRN3w+AKkVk/F/uuOHT9NO
nbGTmNz9s7o3iwkyy+0mVnZPKzOUZUz2CGHklnE2ENsDl2RhhIT5hBRHACZTkC4m
wapWISWW4SyaahZVaiKt01yVbTvpMYxcYOQEaOouA//H92gV7aQdg8Qz91TuYYU6
V6W2rNkhD0csyS1ifZqsRUJpfANNTijH8KGboFADHjfq4PkA14gsnixkWDlwfKLm
1FKz46PmkwB7z/Hq5CK7oRc/LrVaM1rfitp17DH7kCIygQKIkOQKmRSH4orj/hRo
2vP7RpEF4eGIQmUxorE4bUGyUbrZWRbreSrQBbmxHgiDNsmefSdUUSBS4PnHW8Aj
DUuZzpd0qKBXk8H86ObrHsjEkh6p8JYEByqJuHwTiRGnL1+A9QcySBtatM5VanJk
ttF3zimiXTSeQFXseiMU1QMoimdbQUqWWuwkduA9S5I+Vw6+5FZlbK7In3O5/Kll
u59JIO8QNZiu4Pl4JWVMKDlOMMn7+hjzkkQnTyJ3ZwBidUe01Zxl7Z+m/3IVG25F
hZwW/hMqEmvHTk3KeJLB3thygeoEfH4EOmGpoFJ3jrJXyX/klrNOXc6C12HrNWLf
3Jaul6EXboqMIx2kCcxzDpl0HoG5oIyXMzAf
-----END CERTIFICATE-----
